target datalayout = "e-m:e-p270:32:32-p271:32:32-p272:64:64-i64:64-i128:128-f80:128-n8:16:32:64-S128"
target triple = "x86_64-unknown-linux-gnu"

%"class.icu_75::SortKeyByteSink" = type <{ %"class.icu_75::ByteSink", ptr, i32, i32, i32, [4 x i8] }>
%"class.icu_75::ByteSink" = type { ptr }
%"class.icu_75::CollationKeyByteSink" = type { %"class.icu_75::SortKeyByteSink.base", ptr }
%"class.icu_75::SortKeyByteSink.base" = type <{ %"class.icu_75::ByteSink", ptr, i32, i32, i32 }>
%"class.icu_75::UObject" = type { ptr }
%"class.icu_75::CollationKey" = type { %"class.icu_75::UObject", i32, i32, %"union.icu_75::CollationKey::StackBufferOrFields" }
%"union.icu_75::CollationKey::StackBufferOrFields" = type { %struct.anon, [16 x i8] }
%struct.anon = type { ptr, i32 }

@_ZTVN6icu_7515SortKeyByteSinkE = external unnamed_addr constant { [9 x ptr] }, align 8
@_ZTVN6icu_758ByteSinkE = external unnamed_addr constant { [7 x ptr] }, align 8
@_ZN6icu_7520CollationKeyByteSinkD1Ev = unnamed_addr alias void (ptr), ptr @_ZN6icu_7520CollationKeyByteSinkD2Ev

; Function Attrs: mustprogress nounwind uwtable
define linkonce_odr void @_ZN6icu_758ByteSinkC2Ev(ptr noundef nonnull align 8 dereferenceable(8) %this) unnamed_addr #0 comdat align 2 {
entry:
  %this.addr = alloca ptr, align 8
  store ptr %this, ptr %this.addr, align 8
  %this1 = load ptr, ptr %this.addr, align 8
  store ptr getelementptr inbounds ({ [7 x ptr] }, ptr @_ZTVN6icu_758ByteSinkE, i32 0, i32 0, i32 2), ptr %this1, align 8
  ret void
}

; Function Attrs: mustprogress uwtable
define linkonce_odr void @_ZN6icu_7515SortKeyByteSinkC2EPci(ptr noundef nonnull align 8 dereferenceable(28) %this, ptr noundef %dest, i32 noundef %destCapacity) unnamed_addr #1 comdat align 2 {
entry:
  %this.addr = alloca ptr, align 8
  %dest.addr = alloca ptr, align 8
  %destCapacity.addr = alloca i32, align 4
  store ptr %this, ptr %this.addr, align 8
  store ptr %dest, ptr %dest.addr, align 8
  store i32 %destCapacity, ptr %destCapacity.addr, align 4
  %this1 = load ptr, ptr %this.addr, align 8
  call void @_ZN6icu_758ByteSinkC2Ev(ptr noundef nonnull align 8 dereferenceable(8) %this1)
  store ptr getelementptr inbounds ({ [9 x ptr] }, ptr @_ZTVN6icu_7515SortKeyByteSinkE, i32 0, i32 0, i32 2), ptr %this1, align 8
  %buffer_ = getelementptr inbounds %"class.icu_75::SortKeyByteSink", ptr %this1, i32 0, i32 1
  %0 = load ptr, ptr %dest.addr, align 8
  store ptr %0, ptr %buffer_, align 8
  %capacity_ = getelementptr inbounds %"class.icu_75::SortKeyByteSink", ptr %this1, i32 0, i32 2
  %1 = load i32, ptr %destCapacity.addr, align 4
  store i32 %1, ptr %capacity_, align 8
  %appended_ = getelementptr inbounds %"class.icu_75::SortKeyByteSink", ptr %this1, i32 0, i32 3
  store i32 0, ptr %appended_, align 4
  %ignore_ = getelementptr inbounds %"class.icu_75::SortKeyByteSink", ptr %this1, i32 0, i32 4
  store i32 0, ptr %ignore_, align 8
  ret void
}

; Function Attrs: mustprogress nounwind uwtable
define linkonce_odr noundef i32 @_ZNK6icu_7512CollationKey11getCapacityEv(ptr noundef nonnull align 8 dereferenceable(48) %this) #0 comdat align 2 {
entry:
  %this.addr = alloca ptr, align 8
  store ptr %this, ptr %this.addr, align 8
  %this1 = load ptr, ptr %this.addr, align 8
  %fFlagAndLength = getelementptr inbounds %"class.icu_75::CollationKey", ptr %this1, i32 0, i32 1
  %0 = load i32, ptr %fFlagAndLength, align 8
  %cmp = icmp sge i32 %0, 0
  br i1 %cmp, label %cond.true, label %cond.false

cond.true:                                        ; preds = %entry
  br label %cond.end

cond.false:                                       ; preds = %entry
  %fUnion = getelementptr inbounds %"class.icu_75::CollationKey", ptr %this1, i32 0, i32 3
  %fCapacity = getelementptr inbounds %struct.anon, ptr %fUnion, i32 0, i32 1
  %1 = load i32, ptr %fCapacity, align 8
  br label %cond.end

cond.end:                                         ; preds = %cond.false, %cond.true
  %cond = phi i32 [ 32, %cond.true ], [ %1, %cond.false ]
  ret i32 %cond
}

; Function Attrs: mustprogress nounwind uwtable
define linkonce_odr noundef ptr @_ZN6icu_7512CollationKey8getBytesEv(ptr noundef nonnull align 8 dereferenceable(48) %this) #0 comdat align 2 {
entry:
  %this.addr = alloca ptr, align 8
  store ptr %this, ptr %this.addr, align 8
  %this1 = load ptr, ptr %this.addr, align 8
  %fFlagAndLength = getelementptr inbounds %"class.icu_75::CollationKey", ptr %this1, i32 0, i32 1
  %0 = load i32, ptr %fFlagAndLength, align 8
  %cmp = icmp sge i32 %0, 0
  br i1 %cmp, label %cond.true, label %cond.false

cond.true:                                        ; preds = %entry
  %fUnion = getelementptr inbounds %"class.icu_75::CollationKey", ptr %this1, i32 0, i32 3
  %arraydecay = getelementptr inbounds [32 x i8], ptr %fUnion, i64 0, i64 0
  br label %cond.end

cond.false:                                       ; preds = %entry
  %fUnion2 = getelementptr inbounds %"class.icu_75::CollationKey", ptr %this1, i32 0, i32 3
  %fBytes = getelementptr inbounds %struct.anon, ptr %fUnion2, i32 0, i32 0
  %1 = load ptr, ptr %fBytes, align 8
  br label %cond.end

cond.end:                                         ; preds = %cond.false, %cond.true
  %cond = phi ptr [ %arraydecay, %cond.true ], [ %1, %cond.false ]
  ret ptr %cond
}

; Function Attrs: mustprogress nounwind uwtable
define linkonce_odr noundef i32 @_ZNK6icu_7515SortKeyByteSink21NumberOfBytesAppendedEv(ptr noundef nonnull align 8 dereferenceable(28) %this) #0 comdat align 2 {
entry:
  %this.addr = alloca ptr, align 8
  store ptr %this, ptr %this.addr, align 8
  %this1 = load ptr, ptr %this.addr, align 8
  %appended_ = getelementptr inbounds %"class.icu_75::SortKeyByteSink", ptr %this1, i32 0, i32 3
  %0 = load i32, ptr %appended_, align 4
  ret i32 %0
}

; Function Attrs: mustprogress nounwind uwtable
define linkonce_odr noundef signext i8 @_ZNK6icu_7512CollationKey7isBogusEv(ptr noundef nonnull align 8 dereferenceable(48) %this) #0 comdat align 2 {
entry:
  %this.addr = alloca ptr, align 8
  store ptr %this, ptr %this.addr, align 8
  %this1 = load ptr, ptr %this.addr, align 8
  %fHashCode = getelementptr inbounds %"class.icu_75::CollationKey", ptr %this1, i32 0, i32 2
  %0 = load i32, ptr %fHashCode, align 4
  %cmp = icmp eq i32 %0, 2
  %conv = zext i1 %cmp to i8
  ret i8 %conv
}

; Function Attrs: mustprogress uwtable
define linkonce_odr void @_ZN6icu_7520CollationKeyByteSinkC2ERNS_12CollationKeyE(ptr noundef nonnull align 8 dereferenceable(40) %this, ptr noundef nonnull align 8 dereferenceable(48) %key) unnamed_addr #1 comdat align 2 {
entry:
  %this.addr = alloca ptr, align 8
  %key.addr = alloca ptr, align 8
  store ptr %this, ptr %this.addr, align 8
  store ptr %key, ptr %key.addr, align 8
  %this1 = load ptr, ptr %this.addr, align 8
  %0 = load ptr, ptr %key.addr, align 8
  %call = call noundef ptr @_ZN6icu_7512CollationKey8getBytesEv(ptr noundef nonnull align 8 dereferenceable(48) %0)
  %1 = load ptr, ptr %key.addr, align 8
  %call2 = call noundef i32 @_ZNK6icu_7512CollationKey11getCapacityEv(ptr noundef nonnull align 8 dereferenceable(48) %1)
  call void @_ZN6icu_7515SortKeyByteSinkC2EPci(ptr noundef nonnull align 8 dereferenceable(28) %this1, ptr noundef %call, i32 noundef %call2)
  store ptr getelementptr inbounds ({ [9 x ptr] }, ptr @_ZTVN6icu_7520CollationKeyByteSinkE, i32 0, i32 0, i32 2), ptr %this1, align 8
  %key_ = getelementptr inbounds %"class.icu_75::CollationKeyByteSink", ptr %this1, i32 0, i32 1
  %2 = load ptr, ptr %key.addr, align 8
  store ptr %2, ptr %key_, align 8
  ret void
}

; Function Attrs: mustprogress nounwind uwtable
define internal noundef signext i8 @_ZL9U_FAILURE10UErrorCode(i32 noundef %code) #0 {
entry:
  %code.addr = alloca i32, align 4
  store i32 %code, ptr %code.addr, align 4
  %0 = load i32, ptr %code.addr, align 4
  %cmp = icmp sgt i32 %0, 0
  %conv = zext i1 %cmp to i8
  ret i8 %conv
}

; Function Attrs: mustprogress uwtable
define noundef nonnull align 8 dereferenceable(48) ptr @_ZNK6icu_7517RuleBasedCollator15getCollationKeyEPKDsiRNS_12CollationKeyER10UErrorCode(ptr noundef nonnull align 8 dereferenceable(272) %this, ptr noundef %s, i32 noundef %length, ptr noundef nonnull align 8 dereferenceable(48) %key, ptr noundef nonnull align 4 dereferenceable(4) %errorCode) unnamed_addr #1 align 2 personality ptr @__gxx_personality_v0 {
entry:
  %retval = alloca ptr, align 8
  %this.addr = alloca ptr, align 8
  %s.addr = alloca ptr, align 8
  %length.addr = alloca i32, align 4
  %key.addr = alloca ptr, align 8
  %errorCode.addr = alloca ptr, align 8
  %sink = alloca %"class.icu_75::CollationKeyByteSink", align 8
  %exn.slot = alloca ptr, align 8
  %ehselector.slot = alloca i32, align 4
  store ptr %this, ptr %this.addr, align 8
  store ptr %s, ptr %s.addr, align 8
  store i32 %length, ptr %length.addr, align 4
  store ptr %key, ptr %key.addr, align 8
  store ptr %errorCode, ptr %errorCode.addr, align 8
  %this1 = load ptr, ptr %this.addr, align 8
  %0 = load ptr, ptr %errorCode.addr, align 8
  %1 = load i32, ptr %0, align 4
  %call = call noundef signext i8 @_ZL9U_FAILURE10UErrorCode(i32 noundef %1)
  %tobool = icmp ne i8 %call, 0
  br i1 %tobool, label %if.then, label %if.end

if.then:                                          ; preds = %entry
  %2 = load ptr, ptr %key.addr, align 8
  %call2 = call noundef nonnull align 8 dereferenceable(48) ptr @_ZN6icu_7512CollationKey10setToBogusEv(ptr noundef nonnull align 8 dereferenceable(48) %2)
  store ptr %call2, ptr %retval, align 8
  br label %return

if.end:                                           ; preds = %entry
  %3 = load ptr, ptr %s.addr, align 8
  %cmp = icmp eq ptr %3, null
  br i1 %cmp, label %land.lhs.true, label %if.end6

land.lhs.true:                                    ; preds = %if.end
  %4 = load i32, ptr %length.addr, align 4
  %cmp3 = icmp ne i32 %4, 0
  br i1 %cmp3, label %if.then4, label %if.end6

if.then4:                                         ; preds = %land.lhs.true
  %5 = load ptr, ptr %errorCode.addr, align 8
  store i32 1, ptr %5, align 4
  %6 = load ptr, ptr %key.addr, align 8
  %call5 = call noundef nonnull align 8 dereferenceable(48) ptr @_ZN6icu_7512CollationKey10setToBogusEv(ptr noundef nonnull align 8 dereferenceable(48) %6)
  store ptr %call5, ptr %retval, align 8
  br label %return

if.end6:                                          ; preds = %land.lhs.true, %if.end
  %7 = load ptr, ptr %key.addr, align 8
  %call7 = call noundef nonnull align 8 dereferenceable(48) ptr @_ZN6icu_7512CollationKey5resetEv(ptr noundef nonnull align 8 dereferenceable(48) %7)
  %8 = load ptr, ptr %key.addr, align 8
  call void @_ZN6icu_7520CollationKeyByteSinkC2ERNS_12CollationKeyE(ptr noundef nonnull align 8 dereferenceable(40) %sink, ptr noundef nonnull align 8 dereferenceable(48) %8)
  %9 = load ptr, ptr %s.addr, align 8
  %10 = load i32, ptr %length.addr, align 4
  %11 = load ptr, ptr %errorCode.addr, align 8
  invoke void @_ZNK6icu_7517RuleBasedCollator12writeSortKeyEPKDsiRNS_15SortKeyByteSinkER10UErrorCode(ptr noundef nonnull align 8 dereferenceable(272) %this1, ptr noundef %9, i32 noundef %10, ptr noundef nonnull align 8 dereferenceable(28) %sink, ptr noundef nonnull align 4 dereferenceable(4) %11)
          to label %invoke.cont unwind label %lpad

invoke.cont:                                      ; preds = %if.end6
  %12 = load ptr, ptr %errorCode.addr, align 8
  %13 = load i32, ptr %12, align 4
  %call9 = invoke noundef signext i8 @_ZL9U_FAILURE10UErrorCode(i32 noundef %13)
          to label %invoke.cont8 unwind label %lpad

invoke.cont8:                                     ; preds = %invoke.cont
  %tobool10 = icmp ne i8 %call9, 0
  br i1 %tobool10, label %if.then11, label %if.else

if.then11:                                        ; preds = %invoke.cont8
  %14 = load ptr, ptr %key.addr, align 8
  %call13 = invoke noundef nonnull align 8 dereferenceable(48) ptr @_ZN6icu_7512CollationKey10setToBogusEv(ptr noundef nonnull align 8 dereferenceable(48) %14)
          to label %invoke.cont12 unwind label %lpad

invoke.cont12:                                    ; preds = %if.then11
  br label %if.end23

lpad:                                             ; preds = %invoke.cont19, %if.else18, %if.else, %if.then11, %invoke.cont, %if.end6
  %15 = landingpad { ptr, i32 }
          cleanup
  %16 = extractvalue { ptr, i32 } %15, 0
  store ptr %16, ptr %exn.slot, align 8
  %17 = extractvalue { ptr, i32 } %15, 1
  store i32 %17, ptr %ehselector.slot, align 4
  call void @_ZN6icu_7520CollationKeyByteSinkD1Ev(ptr noundef nonnull align 8 dereferenceable(40) %sink) #10
  br label %eh.resume

if.else:                                          ; preds = %invoke.cont8
  %18 = load ptr, ptr %key.addr, align 8
  %call15 = invoke noundef signext i8 @_ZNK6icu_7512CollationKey7isBogusEv(ptr noundef nonnull align 8 dereferenceable(48) %18)
          to label %invoke.cont14 unwind label %lpad

invoke.cont14:                                    ; preds = %if.else
  %tobool16 = icmp ne i8 %call15, 0
  br i1 %tobool16, label %if.then17, label %if.else18

if.then17:                                        ; preds = %invoke.cont14
  %19 = load ptr, ptr %errorCode.addr, align 8
  store i32 7, ptr %19, align 4
  br label %if.end22

if.else18:                                        ; preds = %invoke.cont14
  %20 = load ptr, ptr %key.addr, align 8
  %call20 = invoke noundef i32 @_ZNK6icu_7515SortKeyByteSink21NumberOfBytesAppendedEv(ptr noundef nonnull align 8 dereferenceable(28) %sink)
          to label %invoke.cont19 unwind label %lpad

invoke.cont19:                                    ; preds = %if.else18
  invoke void @_ZN6icu_7512CollationKey9setLengthEi(ptr noundef nonnull align 8 dereferenceable(48) %20, i32 noundef %call20)
          to label %invoke.cont21 unwind label %lpad

invoke.cont21:                                    ; preds = %invoke.cont19
  br label %if.end22

if.end22:                                         ; preds = %invoke.cont21, %if.then17
  br label %if.end23

if.end23:                                         ; preds = %if.end22, %invoke.cont12
  %21 = load ptr, ptr %key.addr, align 8
  store ptr %21, ptr %retval, align 8
  call void @_ZN6icu_7520CollationKeyByteSinkD1Ev(ptr noundef nonnull align 8 dereferenceable(40) %sink) #10
  br label %return

return:                                           ; preds = %if.end23, %if.then4, %if.then
  %22 = load ptr, ptr %retval, align 8
  ret ptr %22

eh.resume:                                        ; preds = %lpad
  %exn = load ptr, ptr %exn.slot, align 8
  %sel = load i32, ptr %ehselector.slot, align 4
  %lpad.val = insertvalue { ptr, i32 } poison, ptr %exn, 0
  %lpad.val24 = insertvalue { ptr, i32 } %lpad.val, i32 %sel, 1
  resume { ptr, i32 } %lpad.val24
}