; Function Attrs: mustprogress uwtable
define noundef nonnull align 8 dereferenceable(48) ptr @_ZNK6icu_7517RuleBasedCollator15getCollationKeyEPKDsiRNS_12CollationKeyER10UErrorCode(ptr nocapture noundef nonnull readonly align 8 dereferenceable(272) %this, ptr noundef %s, i32 noundef %length, ptr noundef nonnull align 8 dereferenceable(48) %key, ptr noundef nonnull align 4 dereferenceable(4) %errorCode) unnamed_addr #1 align 2 personality ptr @__gxx_personality_v0 {
entry:
  %sink = alloca %"class.icu_75::CollationKeyByteSink", align 8
  %0 = load i32, ptr %errorCode, align 4
  %cmp.i = icmp slt i32 %0, 1
  br i1 %cmp.i, label %if.end, label %if.then

if.then:                                          ; preds = %entry
  %call2 = tail call noundef nonnull align 8 dereferenceable(48) ptr @_ZN6icu_7512CollationKey10setToBogusEv(ptr noundef nonnull align 8 dereferenceable(48) %key)
  br label %return

if.end:                                           ; preds = %entry
  %cmp = icmp eq ptr %s, null
  %cmp3 = icmp ne i32 %length, 0
  %or.cond = and i1 %cmp, %cmp3
  br i1 %or.cond, label %if.then4, label %if.end6

if.then4:                                         ; preds = %if.end
  store i32 1, ptr %errorCode, align 4
  %call5 = tail call noundef nonnull align 8 dereferenceable(48) ptr @_ZN6icu_7512CollationKey10setToBogusEv(ptr noundef nonnull align 8 dereferenceable(48) %key)
  br label %return

if.end6:                                          ; preds = %if.end
  %call7 = tail call noundef nonnull align 8 dereferenceable(48) ptr @_ZN6icu_7512CollationKey5resetEv(ptr noundef nonnull align 8 dereferenceable(48) %key)
  %fFlagAndLength.i.i = getelementptr inbounds i8, ptr %key, i64 8
  %1 = load i32, ptr %fFlagAndLength.i.i, align 8
  %fUnion.i.i = getelementptr inbounds i8, ptr %key, i64 16
  %2 = load ptr, ptr %fUnion.i.i, align 8
  %cmp1.i.i = icmp slt i32 %1, 0
  %cond.i.i = select i1 %cmp1.i.i, ptr %2, ptr %fUnion.i.i
  %cmp.i.i = icmp sgt i32 %1, -1
  %fCapacity.i.i = getelementptr inbounds i8, ptr %key, i64 24
  %3 = load i32, ptr %fCapacity.i.i, align 8
  %cond.i4.i = select i1 %cmp.i.i, i32 32, i32 %3
  %buffer_.i.i = getelementptr inbounds i8, ptr %sink, i64 8
  store ptr %cond.i.i, ptr %buffer_.i.i, align 8
  %capacity_.i.i = getelementptr inbounds i8, ptr %sink, i64 16
  store i32 %cond.i4.i, ptr %capacity_.i.i, align 8
  %appended_.i.i = getelementptr inbounds i8, ptr %sink, i64 20
  store i32 0, ptr %appended_.i.i, align 4
  %ignore_.i.i = getelementptr inbounds i8, ptr %sink, i64 24
  store i32 0, ptr %ignore_.i.i, align 8
  store ptr getelementptr inbounds ({ [9 x ptr] }, ptr @_ZTVN6icu_7520CollationKeyByteSinkE, i64 0, i32 0, i64 2), ptr %sink, align 8
  %key_.i = getelementptr inbounds i8, ptr %sink, i64 32
  store ptr %key, ptr %key_.i, align 8
  invoke void @_ZNK6icu_7517RuleBasedCollator12writeSortKeyEPKDsiRNS_15SortKeyByteSinkER10UErrorCode(ptr noundef nonnull align 8 dereferenceable(272) %this, ptr noundef %s, i32 noundef %length, ptr noundef nonnull align 8 dereferenceable(28) %sink, ptr noundef nonnull align 4 dereferenceable(4) %errorCode)
          to label %invoke.cont unwind label %lpad

invoke.cont:                                      ; preds = %if.end6
  %4 = load i32, ptr %errorCode, align 4
  %cmp.i14 = icmp slt i32 %4, 1
  br i1 %cmp.i14, label %if.else, label %if.then11

if.then11:                                        ; preds = %invoke.cont
  %call13 = invoke noundef nonnull align 8 dereferenceable(48) ptr @_ZN6icu_7512CollationKey10setToBogusEv(ptr noundef nonnull align 8 dereferenceable(48) %key)
          to label %if.end23 unwind label %lpad

lpad:                                             ; preds = %if.else18, %if.then11, %if.end6
  %5 = landingpad { ptr, i32 }
          cleanup
  call void @_ZN6icu_7520CollationKeyByteSinkD1Ev(ptr noundef nonnull align 8 dereferenceable(40) %sink) #17
  resume { ptr, i32 } %5

if.else:                                          ; preds = %invoke.cont
  %fHashCode.i = getelementptr inbounds i8, ptr %key, i64 12
  %6 = load i32, ptr %fHashCode.i, align 4
  %cmp.i16.not = icmp eq i32 %6, 2
  br i1 %cmp.i16.not, label %if.then17, label %if.else18

if.then17:                                        ; preds = %if.else
  store i32 7, ptr %errorCode, align 4
  br label %if.end23

if.else18:                                        ; preds = %if.else
  %7 = load i32, ptr %appended_.i.i, align 4
  invoke void @_ZN6icu_7512CollationKey9setLengthEi(ptr noundef nonnull align 8 dereferenceable(48) %key, i32 noundef %7)
          to label %if.end23 unwind label %lpad

if.end23:                                         ; preds = %if.then17, %if.else18, %if.then11
  call void @_ZN6icu_7520CollationKeyByteSinkD1Ev(ptr noundef nonnull align 8 dereferenceable(40) %sink) #17
  br label %return

return:                                           ; preds = %if.end23, %if.then4, %if.then
  %retval.0 = phi ptr [ %call2, %if.then ], [ %call5, %if.then4 ], [ %key, %if.end23 ]
  ret ptr %retval.0
}